target datalayout = "e-m:e-p270:32:32-p271:32:32-p272:64:64-i64:64-i128:128-f80:128-n8:16:32:64-S128"
target triple = "x86_64-pc-linux-gnu"

%struct.cli_ctx_tag = type { ptr, ptr, ptr, ptr, ptr, ptr, ptr, i64, ptr, i32, i32, ptr, i32, i32, ptr, [16 x i8], ptr, ptr, ptr, ptr, ptr, ptr, %struct.timeval, i8, i8 }
%struct.timeval = type { i64, i64 }
%struct.cl_engine = type { i32, i32, i32, [2 x i32], i32, i32, i32, ptr, i32, i64, i32, i32, i64, i64, i32, i32, i32, i32, ptr, ptr, ptr, ptr, ptr, ptr, ptr, ptr, ptr, ptr, ptr, ptr, ptr, ptr, ptr, ptr, ptr, ptr, ptr, i64, ptr, %struct.crtmgr, ptr, ptr, ptr, ptr, ptr, ptr, ptr, ptr, ptr, ptr, ptr, ptr, ptr, ptr, ptr, ptr, ptr, %struct.cli_all_bc, [7 x ptr], [7 x i32], i32, i32, i32, i32, i64, i64, i64, i64, i64, ptr, ptr, ptr, ptr, ptr, ptr, ptr, ptr, ptr, i32, i32, i32, i64, i64, i64, ptr }
%struct.crtmgr = type { ptr, i32 }
%struct.cli_all_bc = type { ptr, i32, ptr, %struct.cli_environment, i32 }
%struct.cli_environment = type { i32, i32, i32, i32, i32, i32, i32, [65 x i8], [65 x i8], [65 x i8], [65 x i8], [65 x i8], [65 x i8], [65 x i8], i8, i8, i8, i8, i8, i8, i8, i8, i8 }
%struct.cl_scan_options = type { i32, i32, i32, i32, i32 }

@.str.105 = private unnamed_addr constant [52 x i8] c"cli_magic_scan: failed to generate temporary file.\0A\00", align 1

; Function Attrs: nounwind uwtable
define internal i32 @cli_scanrar(ptr noundef %0) #0 {
  %2 = alloca ptr, align 8
  %3 = alloca i32, align 4
  %4 = alloca ptr, align 8
  %5 = alloca i32, align 4
  %6 = alloca ptr, align 8
  %7 = alloca i32, align 4
  store ptr %0, ptr %2, align 8
  store i32 0, ptr %3, align 4
  store ptr null, ptr %4, align 8
  store i32 -1, ptr %5, align 4
  store ptr null, ptr %6, align 8
  store i32 -1, ptr %7, align 4
  %8 = load ptr, ptr %2, align 8
  %9 = getelementptr inbounds %struct.cli_ctx_tag, ptr %8, i32 0, i32 8
  %10 = load ptr, ptr %9, align 8
  %11 = getelementptr inbounds %struct.cl_scan_options, ptr %10, i32 0, i32 0
  %12 = load i32, ptr %11, align 4
  %13 = and i32 %12, 16
  %14 = icmp ne i32 %13, 0
  br i1 %14, label %26, label %15

15:                                               ; preds = %1
  %16 = load ptr, ptr %2, align 8
  %17 = getelementptr inbounds %struct.cli_ctx_tag, ptr %16, i32 0, i32 1
  %18 = load ptr, ptr %17, align 8
  %19 = icmp eq ptr null, %18
  br i1 %19, label %26, label %20

20:                                               ; preds = %15
  %21 = load ptr, ptr %2, align 8
  %22 = getelementptr inbounds %struct.cli_ctx_tag, ptr %21, i32 0, i32 1
  %23 = load ptr, ptr %22, align 8
  %24 = call i32 @access(ptr noundef %23, i32 noundef 4) #11
  %25 = icmp ne i32 0, %24
  br i1 %25, label %26, label %43

26:                                               ; preds = %20, %15, %1
  %27 = load ptr, ptr %2, align 8
  %28 = getelementptr inbounds %struct.cli_ctx_tag, ptr %27, i32 0, i32 14
  %29 = load ptr, ptr %28, align 8
  %30 = load ptr, ptr %2, align 8
  %31 = getelementptr inbounds %struct.cli_ctx_tag, ptr %30, i32 0, i32 1
  %32 = load ptr, ptr %31, align 8
  %33 = load ptr, ptr %2, align 8
  %34 = getelementptr inbounds %struct.cli_ctx_tag, ptr %33, i32 0, i32 2
  %35 = load ptr, ptr %34, align 8
  %36 = call i32 @fmap_dump_to_file(ptr noundef %29, ptr noundef %32, ptr noundef %35, ptr noundef %6, ptr noundef %7, i64 noundef 0, i64 noundef -1)
  store i32 %36, ptr %3, align 4
  %37 = load i32, ptr %3, align 4
  %38 = icmp ne i32 %37, 0
  br i1 %38, label %39, label %40

39:                                               ; preds = %26
  call void (ptr, ...) @cli_dbgmsg(ptr noundef @.str.105)
  br label %83

40:                                               ; preds = %26
  %41 = load ptr, ptr %6, align 8
  store ptr %41, ptr %4, align 8
  %42 = load i32, ptr %7, align 4
  store i32 %42, ptr %5, align 4
  br label %51

43:                                               ; preds = %20
  %44 = load ptr, ptr %2, align 8
  %45 = getelementptr inbounds %struct.cli_ctx_tag, ptr %44, i32 0, i32 1
  %46 = load ptr, ptr %45, align 8
  store ptr %46, ptr %4, align 8
  %47 = load ptr, ptr %2, align 8
  %48 = getelementptr inbounds %struct.cli_ctx_tag, ptr %47, i32 0, i32 14
  %49 = load ptr, ptr %48, align 8
  %50 = call i32 @fmap_fd(ptr noundef %49)
  store i32 %50, ptr %5, align 4
  br label %51

51:                                               ; preds = %43, %40
  %52 = load ptr, ptr %4, align 8
  %53 = load i32, ptr %5, align 4
  %54 = load ptr, ptr %2, align 8
  %55 = call i32 @cli_scanrar_file(ptr noundef %52, i32 noundef %53, ptr noundef %54)
  store i32 %55, ptr %3, align 4
  %56 = load ptr, ptr %6, align 8
  %57 = icmp eq ptr null, %56
  br i1 %57, label %58, label %82

58:                                               ; preds = %51
  %59 = load i32, ptr %3, align 4
  %60 = icmp eq i32 8, %59
  br i1 %60, label %61, label %82

61:                                               ; preds = %58
  %62 = load ptr, ptr %2, align 8
  %63 = getelementptr inbounds %struct.cli_ctx_tag, ptr %62, i32 0, i32 14
  %64 = load ptr, ptr %63, align 8
  %65 = load ptr, ptr %2, align 8
  %66 = getelementptr inbounds %struct.cli_ctx_tag, ptr %65, i32 0, i32 1
  %67 = load ptr, ptr %66, align 8
  %68 = load ptr, ptr %2, align 8
  %69 = getelementptr inbounds %struct.cli_ctx_tag, ptr %68, i32 0, i32 2
  %70 = load ptr, ptr %69, align 8
  %71 = call i32 @fmap_dump_to_file(ptr noundef %64, ptr noundef %67, ptr noundef %70, ptr noundef %6, ptr noundef %7, i64 noundef 0, i64 noundef -1)
  store i32 %71, ptr %3, align 4
  %72 = load i32, ptr %3, align 4
  %73 = icmp ne i32 %72, 0
  br i1 %73, label %74, label %75

74:                                               ; preds = %61
  call void (ptr, ...) @cli_dbgmsg(ptr noundef @.str.105)
  br label %83

75:                                               ; preds = %61
  %76 = load ptr, ptr %6, align 8
  store ptr %76, ptr %4, align 8
  %77 = load i32, ptr %7, align 4
  store i32 %77, ptr %5, align 4
  %78 = load ptr, ptr %4, align 8
  %79 = load i32, ptr %5, align 4
  %80 = load ptr, ptr %2, align 8
  %81 = call i32 @cli_scanrar_file(ptr noundef %78, i32 noundef %79, ptr noundef %80)
  store i32 %81, ptr %3, align 4
  br label %82

82:                                               ; preds = %75, %58, %51
  br label %83

83:                                               ; preds = %82, %74, %39
  %84 = load i32, ptr %7, align 4
  %85 = icmp ne i32 %84, -1
  br i1 %85, label %86, label %102

86:                                               ; preds = %83
  %87 = load i32, ptr %7, align 4
  %88 = call i32 @close(i32 noundef %87)
  %89 = load ptr, ptr %2, align 8
  %90 = getelementptr inbounds %struct.cli_ctx_tag, ptr %89, i32 0, i32 6
  %91 = load ptr, ptr %90, align 8
  %92 = getelementptr inbounds %struct.cl_engine, ptr %91, i32 0, i32 8
  %93 = load i32, ptr %92, align 8
  %94 = icmp ne i32 %93, 0
  br i1 %94, label %101, label %95

95:                                               ; preds = %86
  %96 = load ptr, ptr %6, align 8
  %97 = call i32 @cli_unlink(ptr noundef %96)
  %98 = icmp ne i32 %97, 0
  br i1 %98, label %99, label %100

99:                                               ; preds = %95
  store i32 10, ptr %3, align 4
  br label %100

100:                                              ; preds = %99, %95
  br label %101

101:                                              ; preds = %100, %86
  br label %102

102:                                              ; preds = %101, %83
  %103 = load ptr, ptr %6, align 8
  %104 = icmp ne ptr %103, null
  br i1 %104, label %105, label %107

105:                                              ; preds = %102
  %106 = load ptr, ptr %6, align 8
  call void @free(ptr noundef %106) #11
  br label %107

107:                                              ; preds = %105, %102
  %108 = load i32, ptr %3, align 4
  ret i32 %108
}