; Function Attrs: nounwind uwtable
define internal fastcc i32 @cli_scanrar(ptr noundef %0) unnamed_addr #0 {
  %2 = alloca ptr, align 8
  %3 = alloca i32, align 4
  store ptr null, ptr %2, align 8
  store i32 -1, ptr %3, align 4
  %4 = getelementptr inbounds nuw i8, ptr %0, i64 64
  %5 = load ptr, ptr %4, align 8
  %6 = load i32, ptr %5, align 4
  %7 = and i32 %6, 16
  %.not = icmp eq i32 %7, 0
  br i1 %.not, label %8, label %14

8:                                                ; preds = %1
  %9 = getelementptr inbounds nuw i8, ptr %0, i64 8
  %10 = load ptr, ptr %9, align 8
  %11 = icmp eq ptr %10, null
  br i1 %11, label %14, label %12

12:                                               ; preds = %8
  %13 = tail call i32 @access(ptr noundef nonnull %10, i32 noundef 4) #16
  %.not29 = icmp eq i32 %13, 0
  br i1 %.not29, label %25, label %14

14:                                               ; preds = %12, %8, %1
  %15 = getelementptr inbounds nuw i8, ptr %0, i64 96
  %16 = load ptr, ptr %15, align 8
  %17 = getelementptr inbounds nuw i8, ptr %0, i64 8
  %18 = load ptr, ptr %17, align 8
  %19 = getelementptr inbounds nuw i8, ptr %0, i64 16
  %20 = load ptr, ptr %19, align 8
  %21 = call i32 @fmap_dump_to_file(ptr noundef %16, ptr noundef %18, ptr noundef %20, ptr noundef nonnull %2, ptr noundef nonnull %3, i64 noundef 0, i64 noundef -1) #16
  %.not30 = icmp eq i32 %21, 0
  br i1 %.not30, label %23, label %22

22:                                               ; preds = %14
  call void (ptr, ...) @cli_dbgmsg(ptr noundef nonnull @.str.105) #16
  br label %47

23:                                               ; preds = %14
  %24 = load ptr, ptr %2, align 8
  br label %30

25:                                               ; preds = %12
  %26 = load ptr, ptr %9, align 8
  %27 = getelementptr inbounds nuw i8, ptr %0, i64 96
  %28 = load ptr, ptr %27, align 8
  %29 = tail call i32 @fmap_fd(ptr noundef %28) #16
  br label %30

30:                                               ; preds = %25, %23
  %.022 = phi ptr [ %24, %23 ], [ %26, %25 ]
  %31 = call fastcc i32 @cli_scanrar_file(ptr noundef %.022, ptr noundef nonnull %0)
  %32 = load ptr, ptr %2, align 8
  %33 = icmp eq ptr %32, null
  %34 = icmp eq i32 %31, 8
  %or.cond = and i1 %34, %33
  br i1 %or.cond, label %35, label %47

35:                                               ; preds = %30
  %36 = getelementptr inbounds nuw i8, ptr %0, i64 96
  %37 = load ptr, ptr %36, align 8
  %38 = getelementptr inbounds nuw i8, ptr %0, i64 8
  %39 = load ptr, ptr %38, align 8
  %40 = getelementptr inbounds nuw i8, ptr %0, i64 16
  %41 = load ptr, ptr %40, align 8
  %42 = call i32 @fmap_dump_to_file(ptr noundef %37, ptr noundef %39, ptr noundef %41, ptr noundef nonnull %2, ptr noundef nonnull %3, i64 noundef 0, i64 noundef -1) #16
  %.not31 = icmp eq i32 %42, 0
  br i1 %.not31, label %44, label %43

43:                                               ; preds = %35
  call void (ptr, ...) @cli_dbgmsg(ptr noundef nonnull @.str.105) #16
  br label %47

44:                                               ; preds = %35
  %45 = load ptr, ptr %2, align 8
  %46 = call fastcc i32 @cli_scanrar_file(ptr noundef %45, ptr noundef nonnull %0)
  br label %47

47:                                               ; preds = %30, %44, %43, %22
  %.023 = phi i32 [ %21, %22 ], [ %42, %43 ], [ %46, %44 ], [ %31, %30 ]
  %48 = load i32, ptr %3, align 4
  %.not32 = icmp eq i32 %48, -1
  br i1 %.not32, label %58, label %49

49:                                               ; preds = %47
  %50 = call i32 @close(i32 noundef %48) #16
  %51 = getelementptr inbounds nuw i8, ptr %0, i64 48
  %52 = load ptr, ptr %51, align 8
  %53 = getelementptr inbounds nuw i8, ptr %52, i64 40
  %54 = load i32, ptr %53, align 8
  %.not33 = icmp eq i32 %54, 0
  br i1 %.not33, label %55, label %58

55:                                               ; preds = %49
  %56 = load ptr, ptr %2, align 8
  %57 = call i32 @cli_unlink(ptr noundef %56) #16
  %.not34 = icmp eq i32 %57, 0
  %spec.select = select i1 %.not34, i32 %.023, i32 10
  br label %58

58:                                               ; preds = %55, %49, %47
  %.1 = phi i32 [ %.023, %49 ], [ %.023, %47 ], [ %spec.select, %55 ]
  %59 = load ptr, ptr %2, align 8
  %.not35 = icmp eq ptr %59, null
  br i1 %.not35, label %61, label %60

60:                                               ; preds = %58
  call void @free(ptr noundef nonnull %59) #16
  br label %61

61:                                               ; preds = %60, %58
  ret i32 %.1
}